; Function Attrs: nounwind uwtable
define i32 @wc_ChaCha20Poly1305_UpdateAad(ptr noundef %0, ptr noundef %1, i32 noundef %2) local_unnamed_addr #0 {
  %4 = icmp eq ptr %0, null
  br i1 %4, label %25, label %5

5:                                                ; preds = %3
  %6 = icmp eq ptr %1, null
  %7 = icmp ne i32 %2, 0
  %or.cond = and i1 %6, %7
  br i1 %or.cond, label %25, label %8

8:                                                ; preds = %5
  %9 = getelementptr inbounds nuw i8, ptr %0, i64 176
  %10 = load i8, ptr %9, align 8, !tbaa !3
  %.off = add i8 %10, -1
  %switch = icmp ult i8 %.off, 2
  br i1 %switch, label %11, label %25

11:                                               ; preds = %8
  %12 = getelementptr inbounds nuw i8, ptr %0, i64 168
  %13 = load i32, ptr %12, align 8, !tbaa !11
  %14 = xor i32 %13, -1
  %15 = icmp ugt i32 %2, %14
  br i1 %15, label %25, label %16

16:                                               ; preds = %11
  %17 = icmp ne ptr %1, null
  %or.cond3 = and i1 %17, %7
  br i1 %or.cond3, label %18, label %25

18:                                               ; preds = %16
  %19 = getelementptr inbounds nuw i8, ptr %0, i64 72
  %20 = tail call i32 @wc_Poly1305Update(ptr noundef nonnull %19, ptr noundef nonnull %1, i32 noundef %2) #5
  %21 = icmp eq i32 %20, 0
  br i1 %21, label %22, label %25

22:                                               ; preds = %18
  %23 = load i32, ptr %12, align 8, !tbaa !11
  %24 = add i32 %23, %2
  store i32 %24, ptr %12, align 8, !tbaa !11
  store i8 2, ptr %9, align 8, !tbaa !3
  br label %25

25:                                               ; preds = %8, %16, %22, %18, %11, %3, %5
  %.020 = phi i32 [ -173, %5 ], [ -173, %3 ], [ -192, %8 ], [ -274, %11 ], [ 0, %22 ], [ %20, %18 ], [ 0, %16 ]
  ret i32 %.020
}